target datalayout = "e-m:e-p270:32:32-p271:32:32-p272:64:64-i64:64-i128:128-f80:128-n8:16:32:64-S128"
target triple = "x86_64-unknown-linux-gnu"

%struct.BdrvDirtyBitmap = type { ptr, ptr, i8, ptr, ptr, i64, i8, i32, i8, i8, i8, i8, %struct.anon }
%struct.anon = type { ptr, ptr }

; Function Attrs: nounwind sspstrong uwtable
define dso_local zeroext i1 @bdrv_dirty_bitmap_get_persistence(ptr noundef %bitmap) #0 {
entry:
  %bitmap.addr = alloca ptr, align 8
  store ptr %bitmap, ptr %bitmap.addr, align 8
  %0 = load ptr, ptr %bitmap.addr, align 8
  %persistent = getelementptr inbounds %struct.BdrvDirtyBitmap, ptr %0, i32 0, i32 9
  %1 = load i8, ptr %persistent, align 1
  %tobool = trunc i8 %1 to i1
  br i1 %tobool, label %land.rhs, label %land.end

land.rhs:                                         ; preds = %entry
  %2 = load ptr, ptr %bitmap.addr, align 8
  %skip_store = getelementptr inbounds %struct.BdrvDirtyBitmap, ptr %2, i32 0, i32 11
  %3 = load i8, ptr %skip_store, align 1
  %tobool1 = trunc i8 %3 to i1
  %lnot = xor i1 %tobool1, true
  br label %land.end

land.end:                                         ; preds = %land.rhs, %entry
  %4 = phi i1 [ false, %entry ], [ %lnot, %land.rhs ]
  ret i1 %4
}