; Function Attrs: mustprogress nofree norecurse nosync nounwind sspstrong willreturn memory(argmem: read) uwtable
define dso_local zeroext i1 @bdrv_dirty_bitmap_get_persistence(ptr noundef readonly captures(none) %bitmap) local_unnamed_addr #6 {
entry:
  %persistent = getelementptr inbounds nuw i8, ptr %bitmap, i64 57
  %0 = load i8, ptr %persistent, align 1
  %tobool = trunc i8 %0 to i1
  br i1 %tobool, label %land.rhs, label %land.end

land.rhs:                                         ; preds = %entry
  %skip_store = getelementptr inbounds nuw i8, ptr %bitmap, i64 59
  %1 = load i8, ptr %skip_store, align 1
  %tobool1 = trunc i8 %1 to i1
  %lnot = xor i1 %tobool1, true
  br label %land.end

land.end:                                         ; preds = %land.rhs, %entry
  %2 = phi i1 [ false, %entry ], [ %lnot, %land.rhs ]
  ret i1 %2
}